(i__main__
Data
p0
(dp1
S'all_donors'
p2
(dp3
S'PAC 111'
p4
(i__main__
Donor
p5
(dp6
S'name'
p7
g4
sS'type'
p8
S'Political Committee'
p9
sS'money_in'
p10
ccopy_reg
_reconstructor
p11
(cpandas.core.frame
DataFrame
p12
c__builtin__
object
p13
Ntp14
Rp15
(dp16
S'_metadata'
p17
(lp18
sS'_typ'
p19
S'dataframe'
p20
sS'_data'
p21
g11
(cpandas.core.internals
BlockManager
p22
g13
Ntp23
Rp24
((lp25
cpandas.core.indexes.base
_new_Index
p26
(cpandas.core.indexes.base
Index
p27
(dp28
S'data'
p29
cnumpy.core.multiarray
_reconstruct
p30
(cnumpy
ndarray
p31
(I0
tp32
S'b'
p33
tp34
Rp35
(I1
(L3L
tp36
cnumpy
dtype
p37
(S'O8'
p38
I0
I1
tp39
Rp40
(I3
S'|'
p41
NNNI-1
I-1
I63
tp42
bI00
(lp43
S'donor'
p44
aS'donor_id'
p45
aS'amount'
p46
atp47
bsg7
Nstp48
Rp49
ag26
(cpandas.core.indexes.numeric
Int64Index
p50
(dp51
g29
g30
(g31
(I0
tp52
g33
tp53
Rp54
(I1
(L1L
tp55
g37
(S'i8'
p56
I0
I1
tp57
Rp58
(I3
S'<'
p59
NNNI-1
I-1
I0
tp60
bI00
S'\x00\x00\x00\x00\x00\x00\x00\x00'
p61
tp62
bsg7
Nstp63
Rp64
a(lp65
g30
(g31
(I0
tp66
g33
tp67
Rp68
(I1
(L2L
L1L
tp69
g40
I00
(lp70
S'Fnarf Inc'
p71
aS'None'
p72
atp73
bag30
(g31
(I0
tp74
g33
tp75
Rp76
(I1
(L1L
L1L
tp77
g40
I00
(lp78
L100000L
atp79
ba(lp80
g26
(g27
(dp81
g29
g30
(g31
(I0
tp82
g33
tp83
Rp84
(I1
(L2L
tp85
g40
I00
(lp86
g44
ag45
atp87
bsg7
Nstp88
Rp89
ag26
(g27
(dp90
g29
g30
(g31
(I0
tp91
g33
tp92
Rp93
(I1
(L1L
tp94
g40
I00
(lp95
g46
atp96
bsg7
Nstp97
Rp98
a(dp99
S'0.14.1'
p100
(dp101
S'axes'
p102
g25
sS'blocks'
p103
(lp104
(dp105
S'mgr_locs'
p106
c__builtin__
slice
p107
(I0
I2
I1
tp108
Rp109
sS'values'
p110
g68
sa(dp111
g106
g107
(I2
I3
I1
tp112
Rp113
sg110
g76
sasstp114
bsbsS'money_out'
p115
g11
(g12
g13
Ntp116
Rp117
(dp118
g17
g18
sg19
g20
sg21
g11
(g22
g13
Ntp119
Rp120
((lp121
g26
(g27
(dp122
g29
g30
(g31
(I0
tp123
g33
tp124
Rp125
(I1
(L4L
tp126
g40
I00
(lp127
S'receiver'
p128
ag46
aS'party'
p129
ag8
atp130
bsg7
Nstp131
Rp132
ag26
(g50
(dp133
g29
g30
(g31
(I0
tp134
g33
tp135
Rp136
(I1
(L1L
tp137
g58
I00
S'\x00\x00\x00\x00\x00\x00\x00\x00'
p138
tp139
bsg7
Nstp140
Rp141
a(lp142
g30
(g31
(I0
tp143
g33
tp144
Rp145
(I1
(L1L
L1L
tp146
g40
I00
(lp147
S'PAC 333'
p148
atp149
bag30
(g31
(I0
tp150
g33
tp151
Rp152
(I1
(L1L
L1L
tp153
g40
I00
(lp154
L100000L
atp155
bag30
(g31
(I0
tp156
g33
tp157
Rp158
(I1
(L2L
L1L
tp159
g40
I00
(lp160
g72
ag9
atp161
ba(lp162
g26
(g27
(dp163
g29
g30
(g31
(I0
tp164
g33
tp165
Rp166
(I1
(L1L
tp167
g40
I00
(lp168
g128
atp169
bsg7
Nstp170
Rp171
ag26
(g27
(dp172
g29
g30
(g31
(I0
tp173
g33
tp174
Rp175
(I1
(L1L
tp176
g40
I00
(lp177
g46
atp178
bsg7
Nstp179
Rp180
ag26
(g27
(dp181
g29
g30
(g31
(I0
tp182
g33
tp183
Rp184
(I1
(L2L
tp185
g40
I00
(lp186
g129
ag8
atp187
bsg7
Nstp188
Rp189
a(dp190
g100
(dp191
g102
g121
sg103
(lp192
(dp193
g106
g107
(I0
I1
I1
tp194
Rp195
sg110
g145
sa(dp196
g106
g107
(I1
I2
I1
tp197
Rp198
sg110
g152
sa(dp199
g106
g107
(I2
I4
I1
tp200
Rp201
sg110
g158
sasstp202
bsbsS'money_out_resolved'
p203
g11
(g12
g13
Ntp204
Rp205
(dp206
g17
g18
sg19
g20
sg21
g11
(g22
g13
Ntp207
Rp208
((lp209
g26
(g27
(dp210
g29
g30
(g31
(I0
tp211
g33
tp212
Rp213
(I1
(L5L
tp214
g40
I00
(lp215
g128
ag46
ag129
ag8
aS'proportion'
p216
atp217
bsg7
Nstp218
Rp219
ag26
(g27
(dp220
g29
g30
(g31
(I0
tp221
g33
tp222
Rp223
(I1
(L0L
tp224
g40
I00
(lp225
tp226
bsg7
Nstp227
Rp228
a(lp229
g30
(g31
(I0
tp230
g33
tp231
Rp232
(I1
(L5L
L0L
tp233
g40
I00
(lp234
tp235
ba(lp236
g26
(g27
(dp237
g29
g30
(g31
(I0
tp238
g33
tp239
Rp240
(I1
(L5L
tp241
g40
I00
(lp242
g128
ag46
ag129
ag8
ag216
atp243
bsg7
Nstp244
Rp245
a(dp246
g100
(dp247
g102
g209
sg103
(lp248
(dp249
g106
g107
(I0
I5
L1L
tp250
Rp251
sg110
g232
sasstp252
bsbsS'has_resolved'
p253
I00
sS'filer_id'
p254
S'qqq1'
p255
sS'aliases'
p256
(lp257
sbsg71
(i__main__
Donor
p258
(dp259
g7
g71
sg8
S' '
p260
sg10
g11
(g12
g13
Ntp261
Rp262
(dp263
g17
g18
sg19
g20
sg21
g11
(g22
g13
Ntp264
Rp265
((lp266
g26
(g27
(dp267
g29
g30
(g31
(I0
tp268
g33
tp269
Rp270
(I1
(L3L
tp271
g40
I00
(lp272
g44
ag45
ag46
atp273
bsg7
Nstp274
Rp275
ag26
(g27
(dp276
g29
g30
(g31
(I0
tp277
g33
tp278
Rp279
(I1
(L0L
tp280
g40
I00
(lp281
tp282
bsg7
Nstp283
Rp284
a(lp285
g30
(g31
(I0
tp286
g33
tp287
Rp288
(I1
(L3L
L0L
tp289
g40
I00
(lp290
tp291
ba(lp292
g26
(g27
(dp293
g29
g30
(g31
(I0
tp294
g33
tp295
Rp296
(I1
(L3L
tp297
g40
I00
(lp298
g44
ag45
ag46
atp299
bsg7
Nstp300
Rp301
a(dp302
g100
(dp303
g102
g266
sg103
(lp304
(dp305
g106
g107
(I0
I3
L1L
tp306
Rp307
sg110
g288
sasstp308
bsbsg115
g11
(g12
g13
Ntp309
Rp310
(dp311
g17
g18
sg19
g20
sg21
g11
(g22
g13
Ntp312
Rp313
((lp314
g26
(g27
(dp315
g29
g30
(g31
(I0
tp316
g33
tp317
Rp318
(I1
(L4L
tp319
g40
I00
(lp320
g128
ag46
ag129
ag8
atp321
bsg7
Nstp322
Rp323
ag26
(g50
(dp324
g29
g30
(g31
(I0
tp325
g33
tp326
Rp327
(I1
(L1L
tp328
g58
I00
S'\x00\x00\x00\x00\x00\x00\x00\x00'
p329
tp330
bsg7
Nstp331
Rp332
a(lp333
g30
(g31
(I0
tp334
g33
tp335
Rp336
(I1
(L1L
L1L
tp337
g40
I00
(lp338
g4
atp339
bag30
(g31
(I0
tp340
g33
tp341
Rp342
(I1
(L1L
L1L
tp343
g40
I00
(lp344
L100000L
atp345
bag30
(g31
(I0
tp346
g33
tp347
Rp348
(I1
(L2L
L1L
tp349
g40
I00
(lp350
g72
ag9
atp351
ba(lp352
g26
(g27
(dp353
g29
g30
(g31
(I0
tp354
g33
tp355
Rp356
(I1
(L1L
tp357
g40
I00
(lp358
g128
atp359
bsg7
Nstp360
Rp361
ag26
(g27
(dp362
g29
g30
(g31
(I0
tp363
g33
tp364
Rp365
(I1
(L1L
tp366
g40
I00
(lp367
g46
atp368
bsg7
Nstp369
Rp370
ag26
(g27
(dp371
g29
g30
(g31
(I0
tp372
g33
tp373
Rp374
(I1
(L2L
tp375
g40
I00
(lp376
g129
ag8
atp377
bsg7
Nstp378
Rp379
a(dp380
g100
(dp381
g102
g314
sg103
(lp382
(dp383
g106
g107
(I0
I1
I1
tp384
Rp385
sg110
g336
sa(dp386
g106
g107
(I1
I2
I1
tp387
Rp388
sg110
g342
sa(dp389
g106
g107
(I2
I4
I1
tp390
Rp391
sg110
g348
sasstp392
bsbsg203
g11
(g12
g13
Ntp393
Rp394
(dp395
g17
g18
sg19
g20
sg21
g11
(g22
g13
Ntp396
Rp397
((lp398
g26
(g27
(dp399
g29
g30
(g31
(I0
tp400
g33
tp401
Rp402
(I1
(L5L
tp403
g40
I00
(lp404
g128
ag46
ag129
ag8
ag216
atp405
bsg7
Nstp406
Rp407
ag26
(g27
(dp408
g29
g30
(g31
(I0
tp409
g33
tp410
Rp411
(I1
(L0L
tp412
g40
I00
(lp413
tp414
bsg7
Nstp415
Rp416
a(lp417
g30
(g31
(I0
tp418
g33
tp419
Rp420
(I1
(L5L
L0L
tp421
g40
I00
(lp422
tp423
ba(lp424
g26
(g27
(dp425
g29
g30
(g31
(I0
tp426
g33
tp427
Rp428
(I1
(L5L
tp429
g40
I00
(lp430
g128
ag46
ag129
ag8
ag216
atp431
bsg7
Nstp432
Rp433
a(dp434
g100
(dp435
g102
g398
sg103
(lp436
(dp437
g106
g107
(I0
I5
L1L
tp438
Rp439
sg110
g420
sasstp440
bsbsg253
I00
sg254
g260
sg256
(lp441
sbsS'Fnord Inc'
p442
(i__main__
Donor
p443
(dp444
g7
g442
sg8
g260
sg10
g11
(g12
g13
Ntp445
Rp446
(dp447
g17
g18
sg19
g20
sg21
g11
(g22
g13
Ntp448
Rp449
((lp450
g26
(g27
(dp451
g29
g30
(g31
(I0
tp452
g33
tp453
Rp454
(I1
(L3L
tp455
g40
I00
(lp456
g44
ag45
ag46
atp457
bsg7
Nstp458
Rp459
ag26
(g27
(dp460
g29
g30
(g31
(I0
tp461
g33
tp462
Rp463
(I1
(L0L
tp464
g40
I00
(lp465
tp466
bsg7
Nstp467
Rp468
a(lp469
g30
(g31
(I0
tp470
g33
tp471
Rp472
(I1
(L3L
L0L
tp473
g40
I00
(lp474
tp475
ba(lp476
g26
(g27
(dp477
g29
g30
(g31
(I0
tp478
g33
tp479
Rp480
(I1
(L3L
tp481
g40
I00
(lp482
g44
ag45
ag46
atp483
bsg7
Nstp484
Rp485
a(dp486
g100
(dp487
g102
g450
sg103
(lp488
(dp489
g106
g107
(I0
I3
L1L
tp490
Rp491
sg110
g472
sasstp492
bsbsg115
g11
(g12
g13
Ntp493
Rp494
(dp495
g17
g18
sg19
g20
sg21
g11
(g22
g13
Ntp496
Rp497
((lp498
g26
(g27
(dp499
g29
g30
(g31
(I0
tp500
g33
tp501
Rp502
(I1
(L4L
tp503
g40
I00
(lp504
g128
ag46
ag129
ag8
atp505
bsg7
Nstp506
Rp507
ag26
(g50
(dp508
g29
g30
(g31
(I0
tp509
g33
tp510
Rp511
(I1
(L2L
tp512
g58
I00
S'\x00\x00\x00\x00\x00\x00\x00\x00\x00\x00\x00\x00\x00\x00\x00\x00'
p513
tp514
bsg7
Nstp515
Rp516
a(lp517
g30
(g31
(I0
tp518
g33
tp519
Rp520
(I1
(L1L
L2L
tp521
g40
I00
(lp522
S'Candidate A'
p523
aS'PAC 222'
p524
atp525
bag30
(g31
(I0
tp526
g33
tp527
Rp528
(I1
(L1L
L2L
tp529
g40
I00
(lp530
L500L
aL100000L
atp531
bag30
(g31
(I0
tp532
g33
tp533
Rp534
(I1
(L2L
L2L
tp535
g40
I00
(lp536
S'DEMOCRAT'
p537
ag72
aS'Candidate'
p538
ag9
atp539
ba(lp540
g26
(g27
(dp541
g29
g30
(g31
(I0
tp542
g33
tp543
Rp544
(I1
(L1L
tp545
g40
I00
(lp546
g128
atp547
bsg7
Nstp548
Rp549
ag26
(g27
(dp550
g29
g30
(g31
(I0
tp551
g33
tp552
Rp553
(I1
(L1L
tp554
g40
I00
(lp555
g46
atp556
bsg7
Nstp557
Rp558
ag26
(g27
(dp559
g29
g30
(g31
(I0
tp560
g33
tp561
Rp562
(I1
(L2L
tp563
g40
I00
(lp564
g129
ag8
atp565
bsg7
Nstp566
Rp567
a(dp568
g100
(dp569
g102
g498
sg103
(lp570
(dp571
g106
g107
(I0
I1
I1
tp572
Rp573
sg110
g520
sa(dp574
g106
g107
(I1
I2
I1
tp575
Rp576
sg110
g528
sa(dp577
g106
g107
(I2
I4
I1
tp578
Rp579
sg110
g534
sasstp580
bsbsg203
g11
(g12
g13
Ntp581
Rp582
(dp583
g17
g18
sg19
g20
sg21
g11
(g22
g13
Ntp584
Rp585
((lp586
g26
(g27
(dp587
g29
g30
(g31
(I0
tp588
g33
tp589
Rp590
(I1
(L5L
tp591
g40
I00
(lp592
g128
ag46
ag129
ag8
ag216
atp593
bsg7
Nstp594
Rp595
ag26
(g27
(dp596
g29
g30
(g31
(I0
tp597
g33
tp598
Rp599
(I1
(L0L
tp600
g40
I00
(lp601
tp602
bsg7
Nstp603
Rp604
a(lp605
g30
(g31
(I0
tp606
g33
tp607
Rp608
(I1
(L5L
L0L
tp609
g40
I00
(lp610
tp611
ba(lp612
g26
(g27
(dp613
g29
g30
(g31
(I0
tp614
g33
tp615
Rp616
(I1
(L5L
tp617
g40
I00
(lp618
g128
ag46
ag129
ag8
ag216
atp619
bsg7
Nstp620
Rp621
a(dp622
g100
(dp623
g102
g586
sg103
(lp624
(dp625
g106
g107
(I0
I5
L1L
tp626
Rp627
sg110
g608
sasstp628
bsbsg253
I00
sg254
g260
sg256
(lp629
sbsS'A House Caucus'
p630
(i__main__
Donor
p631
(dp632
g7
g630
sg8
g260
sg10
g11
(g12
g13
Ntp633
Rp634
(dp635
g17
g18
sg19
g20
sg21
g11
(g22
g13
Ntp636
Rp637
((lp638
g26
(g27
(dp639
g29
g30
(g31
(I0
tp640
g33
tp641
Rp642
(I1
(L3L
tp643
g40
I00
(lp644
g44
ag45
ag46
atp645
bsg7
Nstp646
Rp647
ag26
(g50
(dp648
g29
g30
(g31
(I0
tp649
g33
tp650
Rp651
(I1
(L1L
tp652
g58
I00
S'\x00\x00\x00\x00\x00\x00\x00\x00'
p653
tp654
bsg7
Nstp655
Rp656
a(lp657
g30
(g31
(I0
tp658
g33
tp659
Rp660
(I1
(L2L
L1L
tp661
g40
I00
(lp662
S'PAC 333'
p663
ag72
atp664
bag30
(g31
(I0
tp665
g33
tp666
Rp667
(I1
(L1L
L1L
tp668
g40
I00
(lp669
L40000L
atp670
ba(lp671
g26
(g27
(dp672
g29
g30
(g31
(I0
tp673
g33
tp674
Rp675
(I1
(L2L
tp676
g40
I00
(lp677
g44
ag45
atp678
bsg7
Nstp679
Rp680
ag26
(g27
(dp681
g29
g30
(g31
(I0
tp682
g33
tp683
Rp684
(I1
(L1L
tp685
g40
I00
(lp686
g46
atp687
bsg7
Nstp688
Rp689
a(dp690
g100
(dp691
g102
g638
sg103
(lp692
(dp693
g106
g107
(I0
I2
I1
tp694
Rp695
sg110
g660
sa(dp696
g106
g107
(I2
I3
I1
tp697
Rp698
sg110
g667
sasstp699
bsbsg115
g11
(g12
g13
Ntp700
Rp701
(dp702
g17
g18
sg19
g20
sg21
g11
(g22
g13
Ntp703
Rp704
((lp705
g26
(g27
(dp706
g29
g30
(g31
(I0
tp707
g33
tp708
Rp709
(I1
(L4L
tp710
g40
I00
(lp711
g128
ag46
ag129
ag8
atp712
bsg7
Nstp713
Rp714
ag26
(g50
(dp715
g29
g30
(g31
(I0
tp716
g33
tp717
Rp718
(I1
(L1L
tp719
g58
I00
S'\x00\x00\x00\x00\x00\x00\x00\x00'
p720
tp721
bsg7
Nstp722
Rp723
a(lp724
g30
(g31
(I0
tp725
g33
tp726
Rp727
(I1
(L1L
L1L
tp728
g40
I00
(lp729
g523
atp730
bag30
(g31
(I0
tp731
g33
tp732
Rp733
(I1
(L1L
L1L
tp734
g40
I00
(lp735
L25000L
atp736
bag30
(g31
(I0
tp737
g33
tp738
Rp739
(I1
(L2L
L1L
tp740
g40
I00
(lp741
g537
ag538
atp742
ba(lp743
g26
(g27
(dp744
g29
g30
(g31
(I0
tp745
g33
tp746
Rp747
(I1
(L1L
tp748
g40
I00
(lp749
g128
atp750
bsg7
Nstp751
Rp752
ag26
(g27
(dp753
g29
g30
(g31
(I0
tp754
g33
tp755
Rp756
(I1
(L1L
tp757
g40
I00
(lp758
g46
atp759
bsg7
Nstp760
Rp761
ag26
(g27
(dp762
g29
g30
(g31
(I0
tp763
g33
tp764
Rp765
(I1
(L2L
tp766
g40
I00
(lp767
g129
ag8
atp768
bsg7
Nstp769
Rp770
a(dp771
g100
(dp772
g102
g705
sg103
(lp773
(dp774
g106
g107
(I0
I1
I1
tp775
Rp776
sg110
g727
sa(dp777
g106
g107
(I1
I2
I1
tp778
Rp779
sg110
g733
sa(dp780
g106
g107
(I2
I4
I1
tp781
Rp782
sg110
g739
sasstp783
bsbsg203
g11
(g12
g13
Ntp784
Rp785
(dp786
g17
g18
sg19
g20
sg21
g11
(g22
g13
Ntp787
Rp788
((lp789
g26
(g27
(dp790
g29
g30
(g31
(I0
tp791
g33
tp792
Rp793
(I1
(L5L
tp794
g40
I00
(lp795
g128
ag46
ag129
ag8
ag216
atp796
bsg7
Nstp797
Rp798
ag26
(g27
(dp799
g29
g30
(g31
(I0
tp800
g33
tp801
Rp802
(I1
(L0L
tp803
g40
I00
(lp804
tp805
bsg7
Nstp806
Rp807
a(lp808
g30
(g31
(I0
tp809
g33
tp810
Rp811
(I1
(L5L
L0L
tp812
g40
I00
(lp813
tp814
ba(lp815
g26
(g27
(dp816
g29
g30
(g31
(I0
tp817
g33
tp818
Rp819
(I1
(L5L
tp820
g40
I00
(lp821
g128
ag46
ag129
ag8
ag216
atp822
bsg7
Nstp823
Rp824
a(dp825
g100
(dp826
g102
g789
sg103
(lp827
(dp828
g106
g107
(I0
I5
L1L
tp829
Rp830
sg110
g811
sasstp831
bsbsg253
I00
sg254
g260
sg256
(lp832
sbsS'NO on 1700 Committee'
p833
(i__main__
Donor
p834
(dp835
g7
g833
sg8
g9
sg10
g11
(g12
g13
Ntp836
Rp837
(dp838
g17
g18
sg19
g20
sg21
g11
(g22
g13
Ntp839
Rp840
((lp841
g26
(g27
(dp842
g29
g30
(g31
(I0
tp843
g33
tp844
Rp845
(I1
(L3L
tp846
g40
I00
(lp847
g44
ag45
ag46
atp848
bsg7
Nstp849
Rp850
ag26
(g50
(dp851
g29
g30
(g31
(I0
tp852
g33
tp853
Rp854
(I1
(L1L
tp855
g58
I00
S'\x00\x00\x00\x00\x00\x00\x00\x00'
p856
tp857
bsg7
Nstp858
Rp859
a(lp860
g30
(g31
(I0
tp861
g33
tp862
Rp863
(I1
(L2L
L1L
tp864
g40
I00
(lp865
g663
ag72
atp866
bag30
(g31
(I0
tp867
g33
tp868
Rp869
(I1
(L1L
L1L
tp870
g40
I00
(lp871
L20000L
atp872
ba(lp873
g26
(g27
(dp874
g29
g30
(g31
(I0
tp875
g33
tp876
Rp877
(I1
(L2L
tp878
g40
I00
(lp879
g44
ag45
atp880
bsg7
Nstp881
Rp882
ag26
(g27
(dp883
g29
g30
(g31
(I0
tp884
g33
tp885
Rp886
(I1
(L1L
tp887
g40
I00
(lp888
g46
atp889
bsg7
Nstp890
Rp891
a(dp892
g100
(dp893
g102
g841
sg103
(lp894
(dp895
g106
g107
(I0
I2
I1
tp896
Rp897
sg110
g863
sa(dp898
g106
g107
(I2
I3
I1
tp899
Rp900
sg110
g869
sasstp901
bsbsg115
g11
(g12
g13
Ntp902
Rp903
(dp904
g17
g18
sg19
g20
sg21
g11
(g22
g13
Ntp905
Rp906
((lp907
g26
(g27
(dp908
g29
g30
(g31
(I0
tp909
g33
tp910
Rp911
(I1
(L4L
tp912
g40
I00
(lp913
g128
ag46
ag129
ag8
atp914
bsg7
Nstp915
Rp916
ag26
(g27
(dp917
g29
g30
(g31
(I0
tp918
g33
tp919
Rp920
(I1
(L0L
tp921
g40
I00
(lp922
tp923
bsg7
Nstp924
Rp925
a(lp926
g30
(g31
(I0
tp927
g33
tp928
Rp929
(I1
(L4L
L0L
tp930
g40
I00
(lp931
tp932
ba(lp933
g26
(g27
(dp934
g29
g30
(g31
(I0
tp935
g33
tp936
Rp937
(I1
(L4L
tp938
g40
I00
(lp939
g128
ag46
ag129
ag8
atp940
bsg7
Nstp941
Rp942
a(dp943
g100
(dp944
g102
g907
sg103
(lp945
(dp946
g106
g107
(I0
I4
L1L
tp947
Rp948
sg110
g929
sasstp949
bsbsg203
g11
(g12
g13
Ntp950
Rp951
(dp952
g17
g18
sg19
g20
sg21
g11
(g22
g13
Ntp953
Rp954
((lp955
g26
(g27
(dp956
g29
g30
(g31
(I0
tp957
g33
tp958
Rp959
(I1
(L5L
tp960
g40
I00
(lp961
g128
ag46
ag129
ag8
ag216
atp962
bsg7
Nstp963
Rp964
ag26
(g27
(dp965
g29
g30
(g31
(I0
tp966
g33
tp967
Rp968
(I1
(L0L
tp969
g40
I00
(lp970
tp971
bsg7
Nstp972
Rp973
a(lp974
g30
(g31
(I0
tp975
g33
tp976
Rp977
(I1
(L5L
L0L
tp978
g40
I00
(lp979
tp980
ba(lp981
g26
(g27
(dp982
g29
g30
(g31
(I0
tp983
g33
tp984
Rp985
(I1
(L5L
tp986
g40
I00
(lp987
g128
ag46
ag129
ag8
ag216
atp988
bsg7
Nstp989
Rp990
a(dp991
g100
(dp992
g102
g955
sg103
(lp993
(dp994
g106
g107
(I0
I5
L1L
tp995
Rp996
sg110
g977
sasstp997
bsbsg253
I00
sg254
S'zz1700'
p998
sg256
(lp999
sbsS'PAC 222'
p1000
(i__main__
Donor
p1001
(dp1002
g7
g1000
sg8
g260
sg10
g11
(g12
g13
Ntp1003
Rp1004
(dp1005
g17
g18
sg19
g20
sg21
g11
(g22
g13
Ntp1006
Rp1007
((lp1008
g26
(g27
(dp1009
g29
g30
(g31
(I0
tp1010
g33
tp1011
Rp1012
(I1
(L3L
tp1013
g40
I00
(lp1014
g44
ag45
ag46
atp1015
bsg7
Nstp1016
Rp1017
ag26
(g50
(dp1018
g29
g30
(g31
(I0
tp1019
g33
tp1020
Rp1021
(I1
(L1L
tp1022
g58
I00
S'\x00\x00\x00\x00\x00\x00\x00\x00'
p1023
tp1024
bsg7
Nstp1025
Rp1026
a(lp1027
g30
(g31
(I0
tp1028
g33
tp1029
Rp1030
(I1
(L2L
L1L
tp1031
g40
I00
(lp1032
g442
ag72
atp1033
bag30
(g31
(I0
tp1034
g33
tp1035
Rp1036
(I1
(L1L
L1L
tp1037
g40
I00
(lp1038
L100000L
atp1039
ba(lp1040
g26
(g27
(dp1041
g29
g30
(g31
(I0
tp1042
g33
tp1043
Rp1044
(I1
(L2L
tp1045
g40
I00
(lp1046
g44
ag45
atp1047
bsg7
Nstp1048
Rp1049
ag26
(g27
(dp1050
g29
g30
(g31
(I0
tp1051
g33
tp1052
Rp1053
(I1
(L1L
tp1054
g40
I00
(lp1055
g46
atp1056
bsg7
Nstp1057
Rp1058
a(dp1059
g100
(dp1060
g102
g1008
sg103
(lp1061
(dp1062
g106
g107
(I0
I2
I1
tp1063
Rp1064
sg110
g1030
sa(dp1065
g106
g107
(I2
I3
I1
tp1066
Rp1067
sg110
g1036
sasstp1068
bsbsg115
g11
(g12
g13
Ntp1069
Rp1070
(dp1071
g17
g18
sg19
g20
sg21
g11
(g22
g13
Ntp1072
Rp1073
((lp1074
g26
(g27
(dp1075
g29
g30
(g31
(I0
tp1076
g33
tp1077
Rp1078
(I1
(L4L
tp1079
g40
I00
(lp1080
g128
ag46
ag129
ag8
atp1081
bsg7
Nstp1082
Rp1083
ag26
(g50
(dp1084
g29
g30
(g31
(I0
tp1085
g33
tp1086
Rp1087
(I1
(L4L
tp1088
g58
I00
S'\x00\x00\x00\x00\x00\x00\x00\x00\x00\x00\x00\x00\x00\x00\x00\x00\x00\x00\x00\x00\x00\x00\x00\x00\x00\x00\x00\x00\x00\x00\x00\x00'
p1089
tp1090
bsg7
Nstp1091
Rp1092
a(lp1093
g30
(g31
(I0
tp1094
g33
tp1095
Rp1096
(I1
(L1L
L4L
tp1097
g40
I00
(lp1098
S'Candidate B'
p1099
aS'B House Caucus'
p1100
aS'PAC 444'
p1101
ag1099
atp1102
bag30
(g31
(I0
tp1103
g33
tp1104
Rp1105
(I1
(L1L
L4L
tp1106
g40
I00
(lp1107
L2000L
aL50000L
aL40000L
aL2000L
atp1108
bag30
(g31
(I0
tp1109
g33
tp1110
Rp1111
(I1
(L2L
L4L
tp1112
g40
I00
(lp1113
S'REPUBLICAN'
p1114
ag72
ag72
ag1114
ag538
ag9
ag9
ag538
atp1115
ba(lp1116
g26
(g27
(dp1117
g29
g30
(g31
(I0
tp1118
g33
tp1119
Rp1120
(I1
(L1L
tp1121
g40
I00
(lp1122
g128
atp1123
bsg7
Nstp1124
Rp1125
ag26
(g27
(dp1126
g29
g30
(g31
(I0
tp1127
g33
tp1128
Rp1129
(I1
(L1L
tp1130
g40
I00
(lp1131
g46
atp1132
bsg7
Nstp1133
Rp1134
ag26
(g27
(dp1135
g29
g30
(g31
(I0
tp1136
g33
tp1137
Rp1138
(I1
(L2L
tp1139
g40
I00
(lp1140
g129
ag8
atp1141
bsg7
Nstp1142
Rp1143
a(dp1144
g100
(dp1145
g102
g1074
sg103
(lp1146
(dp1147
g106
g107
(I0
I1
I1
tp1148
Rp1149
sg110
g1096
sa(dp1150
g106
g107
(I1
I2
I1
tp1151
Rp1152
sg110
g1105
sa(dp1153
g106
g107
(I2
I4
I1
tp1154
Rp1155
sg110
g1111
sasstp1156
bsbsg203
g11
(g12
g13
Ntp1157
Rp1158
(dp1159
g17
g18
sg19
g20
sg21
g11
(g22
g13
Ntp1160
Rp1161
((lp1162
g26
(g27
(dp1163
g29
g30
(g31
(I0
tp1164
g33
tp1165
Rp1166
(I1
(L5L
tp1167
g40
I00
(lp1168
g128
ag46
ag129
ag8
ag216
atp1169
bsg7
Nstp1170
Rp1171
ag26
(g27
(dp1172
g29
g30
(g31
(I0
tp1173
g33
tp1174
Rp1175
(I1
(L0L
tp1176
g40
I00
(lp1177
tp1178
bsg7
Nstp1179
Rp1180
a(lp1181
g30
(g31
(I0
tp1182
g33
tp1183
Rp1184
(I1
(L5L
L0L
tp1185
g40
I00
(lp1186
tp1187
ba(lp1188
g26
(g27
(dp1189
g29
g30
(g31
(I0
tp1190
g33
tp1191
Rp1192
(I1
(L5L
tp1193
g40
I00
(lp1194
g128
ag46
ag129
ag8
ag216
atp1195
bsg7
Nstp1196
Rp1197
a(dp1198
g100
(dp1199
g102
g1162
sg103
(lp1200
(dp1201
g106
g107
(I0
I5
L1L
tp1202
Rp1203
sg110
g1184
sasstp1204
bsbsg253
I00
sg254
g260
sg256
(lp1205
sbsS'SMALL CONTRIBUTIONS'
p1206
(i__main__
Donor
p1207
(dp1208
g7
g1206
sg8
g260
sg10
g11
(g12
g13
Ntp1209
Rp1210
(dp1211
g17
g18
sg19
g20
sg21
g11
(g22
g13
Ntp1212
Rp1213
((lp1214
g26
(g27
(dp1215
g29
g30
(g31
(I0
tp1216
g33
tp1217
Rp1218
(I1
(L3L
tp1219
g40
I00
(lp1220
g44
ag45
ag46
atp1221
bsg7
Nstp1222
Rp1223
ag26
(g27
(dp1224
g29
g30
(g31
(I0
tp1225
g33
tp1226
Rp1227
(I1
(L0L
tp1228
g40
I00
(lp1229
tp1230
bsg7
Nstp1231
Rp1232
a(lp1233
g30
(g31
(I0
tp1234
g33
tp1235
Rp1236
(I1
(L3L
L0L
tp1237
g40
I00
(lp1238
tp1239
ba(lp1240
g26
(g27
(dp1241
g29
g30
(g31
(I0
tp1242
g33
tp1243
Rp1244
(I1
(L3L
tp1245
g40
I00
(lp1246
g44
ag45
ag46
atp1247
bsg7
Nstp1248
Rp1249
a(dp1250
g100
(dp1251
g102
g1214
sg103
(lp1252
(dp1253
g106
g107
(I0
I3
L1L
tp1254
Rp1255
sg110
g1236
sasstp1256
bsbsg115
g11
(g12
g13
Ntp1257
Rp1258
(dp1259
g17
g18
sg19
g20
sg21
g11
(g22
g13
Ntp1260
Rp1261
((lp1262
g26
(g27
(dp1263
g29
g30
(g31
(I0
tp1264
g33
tp1265
Rp1266
(I1
(L4L
tp1267
g40
I00
(lp1268
g128
ag46
ag129
ag8
atp1269
bsg7
Nstp1270
Rp1271
ag26
(g50
(dp1272
g29
g30
(g31
(I0
tp1273
g33
tp1274
Rp1275
(I1
(L1L
tp1276
g58
I00
S'\x00\x00\x00\x00\x00\x00\x00\x00'
p1277
tp1278
bsg7
Nstp1279
Rp1280
a(lp1281
g30
(g31
(I0
tp1282
g33
tp1283
Rp1284
(I1
(L1L
L1L
tp1285
g40
I00
(lp1286
g523
atp1287
bag30
(g31
(I0
tp1288
g33
tp1289
Rp1290
(I1
(L1L
L1L
tp1291
g40
I00
(lp1292
L100L
atp1293
bag30
(g31
(I0
tp1294
g33
tp1295
Rp1296
(I1
(L2L
L1L
tp1297
g40
I00
(lp1298
g537
ag538
atp1299
ba(lp1300
g26
(g27
(dp1301
g29
g30
(g31
(I0
tp1302
g33
tp1303
Rp1304
(I1
(L1L
tp1305
g40
I00
(lp1306
g128
atp1307
bsg7
Nstp1308
Rp1309
ag26
(g27
(dp1310
g29
g30
(g31
(I0
tp1311
g33
tp1312
Rp1313
(I1
(L1L
tp1314
g40
I00
(lp1315
g46
atp1316
bsg7
Nstp1317
Rp1318
ag26
(g27
(dp1319
g29
g30
(g31
(I0
tp1320
g33
tp1321
Rp1322
(I1
(L2L
tp1323
g40
I00
(lp1324
g129
ag8
atp1325
bsg7
Nstp1326
Rp1327
a(dp1328
g100
(dp1329
g102
g1262
sg103
(lp1330
(dp1331
g106
g107
(I0
I1
I1
tp1332
Rp1333
sg110
g1284
sa(dp1334
g106
g107
(I1
I2
I1
tp1335
Rp1336
sg110
g1290
sa(dp1337
g106
g107
(I2
I4
I1
tp1338
Rp1339
sg110
g1296
sasstp1340
bsbsg203
g11
(g12
g13
Ntp1341
Rp1342
(dp1343
g17
g18
sg19
g20
sg21
g11
(g22
g13
Ntp1344
Rp1345
((lp1346
g26
(g27
(dp1347
g29
g30
(g31
(I0
tp1348
g33
tp1349
Rp1350
(I1
(L5L
tp1351
g40
I00
(lp1352
g128
ag46
ag129
ag8
ag216
atp1353
bsg7
Nstp1354
Rp1355
ag26
(g27
(dp1356
g29
g30
(g31
(I0
tp1357
g33
tp1358
Rp1359
(I1
(L0L
tp1360
g40
I00
(lp1361
tp1362
bsg7
Nstp1363
Rp1364
a(lp1365
g30
(g31
(I0
tp1366
g33
tp1367
Rp1368
(I1
(L5L
L0L
tp1369
g40
I00
(lp1370
tp1371
ba(lp1372
g26
(g27
(dp1373
g29
g30
(g31
(I0
tp1374
g33
tp1375
Rp1376
(I1
(L5L
tp1377
g40
I00
(lp1378
g128
ag46
ag129
ag8
ag216
atp1379
bsg7
Nstp1380
Rp1381
a(dp1382
g100
(dp1383
g102
g1346
sg103
(lp1384
(dp1385
g106
g107
(I0
I5
L1L
tp1386
Rp1387
sg110
g1368
sasstp1388
bsbsg253
I00
sg254
g260
sg256
(lp1389
sbsS'B House Caucus'
p1390
(i__main__
Donor
p1391
(dp1392
g7
g1390
sg8
g260
sg10
g11
(g12
g13
Ntp1393
Rp1394
(dp1395
g17
g18
sg19
g20
sg21
g11
(g22
g13
Ntp1396
Rp1397
((lp1398
g26
(g27
(dp1399
g29
g30
(g31
(I0
tp1400
g33
tp1401
Rp1402
(I1
(L3L
tp1403
g40
I00
(lp1404
g44
ag45
ag46
atp1405
bsg7
Nstp1406
Rp1407
ag26
(g50
(dp1408
g29
g30
(g31
(I0
tp1409
g33
tp1410
Rp1411
(I1
(L2L
tp1412
g58
I00
S'\x00\x00\x00\x00\x00\x00\x00\x00\x00\x00\x00\x00\x00\x00\x00\x00'
p1413
tp1414
bsg7
Nstp1415
Rp1416
a(lp1417
g30
(g31
(I0
tp1418
g33
tp1419
Rp1420
(I1
(L2L
L2L
tp1421
g40
I00
(lp1422
g663
ag1000
ag72
ag72
atp1423
bag30
(g31
(I0
tp1424
g33
tp1425
Rp1426
(I1
(L1L
L2L
tp1427
g40
I00
(lp1428
L40000L
aL50000L
atp1429
ba(lp1430
g26
(g27
(dp1431
g29
g30
(g31
(I0
tp1432
g33
tp1433
Rp1434
(I1
(L2L
tp1435
g40
I00
(lp1436
g44
ag45
atp1437
bsg7
Nstp1438
Rp1439
ag26
(g27
(dp1440
g29
g30
(g31
(I0
tp1441
g33
tp1442
Rp1443
(I1
(L1L
tp1444
g40
I00
(lp1445
g46
atp1446
bsg7
Nstp1447
Rp1448
a(dp1449
g100
(dp1450
g102
g1398
sg103
(lp1451
(dp1452
g106
g107
(I0
I2
I1
tp1453
Rp1454
sg110
g1420
sa(dp1455
g106
g107
(I2
I3
I1
tp1456
Rp1457
sg110
g1426
sasstp1458
bsbsg115
g11
(g12
g13
Ntp1459
Rp1460
(dp1461
g17
g18
sg19
g20
sg21
g11
(g22
g13
Ntp1462
Rp1463
((lp1464
g26
(g27
(dp1465
g29
g30
(g31
(I0
tp1466
g33
tp1467
Rp1468
(I1
(L4L
tp1469
g40
I00
(lp1470
g128
ag46
ag129
ag8
atp1471
bsg7
Nstp1472
Rp1473
ag26
(g50
(dp1474
g29
g30
(g31
(I0
tp1475
g33
tp1476
Rp1477
(I1
(L5L
tp1478
g58
I00
S'\x00\x00\x00\x00\x00\x00\x00\x00\x00\x00\x00\x00\x00\x00\x00\x00\x00\x00\x00\x00\x00\x00\x00\x00\x00\x00\x00\x00\x00\x00\x00\x00\x00\x00\x00\x00\x00\x00\x00\x00'
p1479
tp1480
bsg7
Nstp1481
Rp1482
a(lp1483
g30
(g31
(I0
tp1484
g33
tp1485
Rp1486
(I1
(L1L
L5L
tp1487
g40
I00
(lp1488
g1099
ag1099
ag1099
ag1099
ag1099
atp1489
bag30
(g31
(I0
tp1490
g33
tp1491
Rp1492
(I1
(L1L
L5L
tp1493
g40
I00
(lp1494
L5000L
aL5000L
aL5000L
aL5000L
aL5000L
atp1495
bag30
(g31
(I0
tp1496
g33
tp1497
Rp1498
(I1
(L2L
L5L
tp1499
g40
I00
(lp1500
g1114
ag1114
ag1114
ag1114
ag1114
ag538
ag538
ag538
ag538
ag538
atp1501
ba(lp1502
g26
(g27
(dp1503
g29
g30
(g31
(I0
tp1504
g33
tp1505
Rp1506
(I1
(L1L
tp1507
g40
I00
(lp1508
g128
atp1509
bsg7
Nstp1510
Rp1511
ag26
(g27
(dp1512
g29
g30
(g31
(I0
tp1513
g33
tp1514
Rp1515
(I1
(L1L
tp1516
g40
I00
(lp1517
g46
atp1518
bsg7
Nstp1519
Rp1520
ag26
(g27
(dp1521
g29
g30
(g31
(I0
tp1522
g33
tp1523
Rp1524
(I1
(L2L
tp1525
g40
I00
(lp1526
g129
ag8
atp1527
bsg7
Nstp1528
Rp1529
a(dp1530
g100
(dp1531
g102
g1464
sg103
(lp1532
(dp1533
g106
g107
(I0
I1
I1
tp1534
Rp1535
sg110
g1486
sa(dp1536
g106
g107
(I1
I2
I1
tp1537
Rp1538
sg110
g1492
sa(dp1539
g106
g107
(I2
I4
I1
tp1540
Rp1541
sg110
g1498
sasstp1542
bsbsg203
g11
(g12
g13
Ntp1543
Rp1544
(dp1545
g17
g18
sg19
g20
sg21
g11
(g22
g13
Ntp1546
Rp1547
((lp1548
g26
(g27
(dp1549
g29
g30
(g31
(I0
tp1550
g33
tp1551
Rp1552
(I1
(L5L
tp1553
g40
I00
(lp1554
g128
ag46
ag129
ag8
ag216
atp1555
bsg7
Nstp1556
Rp1557
ag26
(g27
(dp1558
g29
g30
(g31
(I0
tp1559
g33
tp1560
Rp1561
(I1
(L0L
tp1562
g40
I00
(lp1563
tp1564
bsg7
Nstp1565
Rp1566
a(lp1567
g30
(g31
(I0
tp1568
g33
tp1569
Rp1570
(I1
(L5L
L0L
tp1571
g40
I00
(lp1572
tp1573
ba(lp1574
g26
(g27
(dp1575
g29
g30
(g31
(I0
tp1576
g33
tp1577
Rp1578
(I1
(L5L
tp1579
g40
I00
(lp1580
g128
ag46
ag129
ag8
ag216
atp1581
bsg7
Nstp1582
Rp1583
a(dp1584
g100
(dp1585
g102
g1548
sg103
(lp1586
(dp1587
g106
g107
(I0
I5
L1L
tp1588
Rp1589
sg110
g1570
sasstp1590
bsbsg253
I00
sg254
g260
sg256
(lp1591
sbsg148
(i__main__
Donor
p1592
(dp1593
g7
g148
sg8
g9
sg10
g11
(g12
g13
Ntp1594
Rp1595
(dp1596
g17
g18
sg19
g20
sg21
g11
(g22
g13
Ntp1597
Rp1598
((lp1599
g26
(g27
(dp1600
g29
g30
(g31
(I0
tp1601
g33
tp1602
Rp1603
(I1
(L3L
tp1604
g40
I00
(lp1605
g44
ag45
ag46
atp1606
bsg7
Nstp1607
Rp1608
ag26
(g50
(dp1609
g29
g30
(g31
(I0
tp1610
g33
tp1611
Rp1612
(I1
(L1L
tp1613
g58
I00
S'\x00\x00\x00\x00\x00\x00\x00\x00'
p1614
tp1615
bsg7
Nstp1616
Rp1617
a(lp1618
g30
(g31
(I0
tp1619
g33
tp1620
Rp1621
(I1
(L2L
L1L
tp1622
g40
I00
(lp1623
S'PAC 111'
p1624
ag72
atp1625
bag30
(g31
(I0
tp1626
g33
tp1627
Rp1628
(I1
(L1L
L1L
tp1629
g40
I00
(lp1630
L100000L
atp1631
ba(lp1632
g26
(g27
(dp1633
g29
g30
(g31
(I0
tp1634
g33
tp1635
Rp1636
(I1
(L2L
tp1637
g40
I00
(lp1638
g44
ag45
atp1639
bsg7
Nstp1640
Rp1641
ag26
(g27
(dp1642
g29
g30
(g31
(I0
tp1643
g33
tp1644
Rp1645
(I1
(L1L
tp1646
g40
I00
(lp1647
g46
atp1648
bsg7
Nstp1649
Rp1650
a(dp1651
g100
(dp1652
g102
g1599
sg103
(lp1653
(dp1654
g106
g107
(I0
I2
I1
tp1655
Rp1656
sg110
g1621
sa(dp1657
g106
g107
(I2
I3
I1
tp1658
Rp1659
sg110
g1628
sasstp1660
bsbsg115
g11
(g12
g13
Ntp1661
Rp1662
(dp1663
g17
g18
sg19
g20
sg21
g11
(g22
g13
Ntp1664
Rp1665
((lp1666
g26
(g27
(dp1667
g29
g30
(g31
(I0
tp1668
g33
tp1669
Rp1670
(I1
(L4L
tp1671
g40
I00
(lp1672
g128
ag46
ag129
ag8
atp1673
bsg7
Nstp1674
Rp1675
ag26
(g50
(dp1676
g29
g30
(g31
(I0
tp1677
g33
tp1678
Rp1679
(I1
(L3L
tp1680
g58
I00
S'\x00\x00\x00\x00\x00\x00\x00\x00\x00\x00\x00\x00\x00\x00\x00\x00\x00\x00\x00\x00\x00\x00\x00\x00'
p1681
tp1682
bsg7
Nstp1683
Rp1684
a(lp1685
g30
(g31
(I0
tp1686
g33
tp1687
Rp1688
(I1
(L1L
L3L
tp1689
g40
I00
(lp1690
S'A House Caucus'
p1691
ag833
ag1100
atp1692
bag30
(g31
(I0
tp1693
g33
tp1694
Rp1695
(I1
(L1L
L3L
tp1696
g40
I00
(lp1697
L40000L
aL20000L
aL40000L
atp1698
bag30
(g31
(I0
tp1699
g33
tp1700
Rp1701
(I1
(L2L
L3L
tp1702
g40
I00
(lp1703
g72
ag72
ag72
ag9
ag9
ag9
atp1704
ba(lp1705
g26
(g27
(dp1706
g29
g30
(g31
(I0
tp1707
g33
tp1708
Rp1709
(I1
(L1L
tp1710
g40
I00
(lp1711
g128
atp1712
bsg7
Nstp1713
Rp1714
ag26
(g27
(dp1715
g29
g30
(g31
(I0
tp1716
g33
tp1717
Rp1718
(I1
(L1L
tp1719
g40
I00
(lp1720
g46
atp1721
bsg7
Nstp1722
Rp1723
ag26
(g27
(dp1724
g29
g30
(g31
(I0
tp1725
g33
tp1726
Rp1727
(I1
(L2L
tp1728
g40
I00
(lp1729
g129
ag8
atp1730
bsg7
Nstp1731
Rp1732
a(dp1733
g100
(dp1734
g102
g1666
sg103
(lp1735
(dp1736
g106
g107
(I0
I1
I1
tp1737
Rp1738
sg110
g1688
sa(dp1739
g106
g107
(I1
I2
I1
tp1740
Rp1741
sg110
g1695
sa(dp1742
g106
g107
(I2
I4
I1
tp1743
Rp1744
sg110
g1701
sasstp1745
bsbsg203
g11
(g12
g13
Ntp1746
Rp1747
(dp1748
g17
g18
sg19
g20
sg21
g11
(g22
g13
Ntp1749
Rp1750
((lp1751
g26
(g27
(dp1752
g29
g30
(g31
(I0
tp1753
g33
tp1754
Rp1755
(I1
(L5L
tp1756
g40
I00
(lp1757
g128
ag46
ag129
ag8
ag216
atp1758
bsg7
Nstp1759
Rp1760
ag26
(g27
(dp1761
g29
g30
(g31
(I0
tp1762
g33
tp1763
Rp1764
(I1
(L0L
tp1765
g40
I00
(lp1766
tp1767
bsg7
Nstp1768
Rp1769
a(lp1770
g30
(g31
(I0
tp1771
g33
tp1772
Rp1773
(I1
(L5L
L0L
tp1774
g40
I00
(lp1775
tp1776
ba(lp1777
g26
(g27
(dp1778
g29
g30
(g31
(I0
tp1779
g33
tp1780
Rp1781
(I1
(L5L
tp1782
g40
I00
(lp1783
g128
ag46
ag129
ag8
ag216
atp1784
bsg7
Nstp1785
Rp1786
a(dp1787
g100
(dp1788
g102
g1751
sg103
(lp1789
(dp1790
g106
g107
(I0
I5
L1L
tp1791
Rp1792
sg110
g1773
sasstp1793
bsbsg253
I00
sg254
S'qqq3'
p1794
sg256
(lp1795
sbsS'PAC 444'
p1796
(i__main__
Donor
p1797
(dp1798
g7
g1796
sg8
g260
sg10
g11
(g12
g13
Ntp1799
Rp1800
(dp1801
g17
g18
sg19
g20
sg21
g11
(g22
g13
Ntp1802
Rp1803
((lp1804
g26
(g27
(dp1805
g29
g30
(g31
(I0
tp1806
g33
tp1807
Rp1808
(I1
(L3L
tp1809
g40
I00
(lp1810
g44
ag45
ag46
atp1811
bsg7
Nstp1812
Rp1813
ag26
(g50
(dp1814
g29
g30
(g31
(I0
tp1815
g33
tp1816
Rp1817
(I1
(L1L
tp1818
g58
I00
S'\x00\x00\x00\x00\x00\x00\x00\x00'
p1819
tp1820
bsg7
Nstp1821
Rp1822
a(lp1823
g30
(g31
(I0
tp1824
g33
tp1825
Rp1826
(I1
(L2L
L1L
tp1827
g40
I00
(lp1828
g1000
ag72
atp1829
bag30
(g31
(I0
tp1830
g33
tp1831
Rp1832
(I1
(L1L
L1L
tp1833
g40
I00
(lp1834
L40000L
atp1835
ba(lp1836
g26
(g27
(dp1837
g29
g30
(g31
(I0
tp1838
g33
tp1839
Rp1840
(I1
(L2L
tp1841
g40
I00
(lp1842
g44
ag45
atp1843
bsg7
Nstp1844
Rp1845
ag26
(g27
(dp1846
g29
g30
(g31
(I0
tp1847
g33
tp1848
Rp1849
(I1
(L1L
tp1850
g40
I00
(lp1851
g46
atp1852
bsg7
Nstp1853
Rp1854
a(dp1855
g100
(dp1856
g102
g1804
sg103
(lp1857
(dp1858
g106
g107
(I0
I2
I1
tp1859
Rp1860
sg110
g1826
sa(dp1861
g106
g107
(I2
I3
I1
tp1862
Rp1863
sg110
g1832
sasstp1864
bsbsg115
g11
(g12
g13
Ntp1865
Rp1866
(dp1867
g17
g18
sg19
g20
sg21
g11
(g22
g13
Ntp1868
Rp1869
((lp1870
g26
(g27
(dp1871
g29
g30
(g31
(I0
tp1872
g33
tp1873
Rp1874
(I1
(L4L
tp1875
g40
I00
(lp1876
g128
ag46
ag129
ag8
atp1877
bsg7
Nstp1878
Rp1879
ag26
(g50
(dp1880
g29
g30
(g31
(I0
tp1881
g33
tp1882
Rp1883
(I1
(L1L
tp1884
g58
I00
S'\x00\x00\x00\x00\x00\x00\x00\x00'
p1885
tp1886
bsg7
Nstp1887
Rp1888
a(lp1889
g30
(g31
(I0
tp1890
g33
tp1891
Rp1892
(I1
(L1L
L1L
tp1893
g40
I00
(lp1894
g1099
atp1895
bag30
(g31
(I0
tp1896
g33
tp1897
Rp1898
(I1
(L1L
L1L
tp1899
g40
I00
(lp1900
L2000L
atp1901
bag30
(g31
(I0
tp1902
g33
tp1903
Rp1904
(I1
(L2L
L1L
tp1905
g40
I00
(lp1906
g1114
ag538
atp1907
ba(lp1908
g26
(g27
(dp1909
g29
g30
(g31
(I0
tp1910
g33
tp1911
Rp1912
(I1
(L1L
tp1913
g40
I00
(lp1914
g128
atp1915
bsg7
Nstp1916
Rp1917
ag26
(g27
(dp1918
g29
g30
(g31
(I0
tp1919
g33
tp1920
Rp1921
(I1
(L1L
tp1922
g40
I00
(lp1923
g46
atp1924
bsg7
Nstp1925
Rp1926
ag26
(g27
(dp1927
g29
g30
(g31
(I0
tp1928
g33
tp1929
Rp1930
(I1
(L2L
tp1931
g40
I00
(lp1932
g129
ag8
atp1933
bsg7
Nstp1934
Rp1935
a(dp1936
g100
(dp1937
g102
g1870
sg103
(lp1938
(dp1939
g106
g107
(I0
I1
I1
tp1940
Rp1941
sg110
g1892
sa(dp1942
g106
g107
(I1
I2
I1
tp1943
Rp1944
sg110
g1898
sa(dp1945
g106
g107
(I2
I4
I1
tp1946
Rp1947
sg110
g1904
sasstp1948
bsbsg203
g11
(g12
g13
Ntp1949
Rp1950
(dp1951
g17
g18
sg19
g20
sg21
g11
(g22
g13
Ntp1952
Rp1953
((lp1954
g26
(g27
(dp1955
g29
g30
(g31
(I0
tp1956
g33
tp1957
Rp1958
(I1
(L5L
tp1959
g40
I00
(lp1960
g128
ag46
ag129
ag8
ag216
atp1961
bsg7
Nstp1962
Rp1963
ag26
(g27
(dp1964
g29
g30
(g31
(I0
tp1965
g33
tp1966
Rp1967
(I1
(L0L
tp1968
g40
I00
(lp1969
tp1970
bsg7
Nstp1971
Rp1972
a(lp1973
g30
(g31
(I0
tp1974
g33
tp1975
Rp1976
(I1
(L5L
L0L
tp1977
g40
I00
(lp1978
tp1979
ba(lp1980
g26
(g27
(dp1981
g29
g30
(g31
(I0
tp1982
g33
tp1983
Rp1984
(I1
(L5L
tp1985
g40
I00
(lp1986
g128
ag46
ag129
ag8
ag216
atp1987
bsg7
Nstp1988
Rp1989
a(dp1990
g100
(dp1991
g102
g1954
sg103
(lp1992
(dp1993
g106
g107
(I0
I5
L1L
tp1994
Rp1995
sg110
g1976
sasstp1996
bsbsg253
I00
sg254
g260
sg256
(lp1997
sbssS'all_candidates'
p1998
(dp1999
S'BBB 123'
p2000
(i__main__
Candidate
p2001
(dp2002
g129
g1114
sg254
g260
sg7
g1099
sg10
g11
(g12
g13
Ntp2003
Rp2004
(dp2005
g17
g18
sg19
g20
sg21
g11
(g22
g13
Ntp2006
Rp2007
((lp2008
g26
(g27
(dp2009
g29
g30
(g31
(I0
tp2010
g33
tp2011
Rp2012
(I1
(L3L
tp2013
g40
I00
(lp2014
g44
ag45
ag46
atp2015
bsg7
Nstp2016
Rp2017
ag26
(g50
(dp2018
g29
g30
(g31
(I0
tp2019
g33
tp2020
Rp2021
(I1
(L8L
tp2022
g58
I00
S'\x00\x00\x00\x00\x00\x00\x00\x00\x00\x00\x00\x00\x00\x00\x00\x00\x00\x00\x00\x00\x00\x00\x00\x00\x00\x00\x00\x00\x00\x00\x00\x00\x00\x00\x00\x00\x00\x00\x00\x00\x00\x00\x00\x00\x00\x00\x00\x00\x00\x00\x00\x00\x00\x00\x00\x00\x00\x00\x00\x00\x00\x00\x00\x00'
p2023
tp2024
bsg7
Nstp2025
Rp2026
a(lp2027
g30
(g31
(I0
tp2028
g33
tp2029
Rp2030
(I1
(L2L
L8L
tp2031
g40
I00
(lp2032
g1796
ag1390
ag1000
ag1000
ag1390
ag1390
ag1390
ag1390
ag72
ag72
ag72
ag72
ag72
ag72
ag72
ag72
atp2033
bag30
(g31
(I0
tp2034
g33
tp2035
Rp2036
(I1
(L1L
L8L
tp2037
g40
I00
(lp2038
L2000L
aL5000L
aL2000L
aL2000L
aL5000L
aL5000L
aL5000L
aL5000L
atp2039
ba(lp2040
g26
(g27
(dp2041
g29
g30
(g31
(I0
tp2042
g33
tp2043
Rp2044
(I1
(L2L
tp2045
g40
I00
(lp2046
g44
ag45
atp2047
bsg7
Nstp2048
Rp2049
ag26
(g27
(dp2050
g29
g30
(g31
(I0
tp2051
g33
tp2052
Rp2053
(I1
(L1L
tp2054
g40
I00
(lp2055
g46
atp2056
bsg7
Nstp2057
Rp2058
a(dp2059
g100
(dp2060
g102
g2008
sg103
(lp2061
(dp2062
g106
g107
(I0
I2
I1
tp2063
Rp2064
sg110
g2030
sa(dp2065
g106
g107
(I2
I3
I1
tp2066
Rp2067
sg110
g2036
sasstp2068
bsbsg8
g538
sbsS'AAA 123'
p2069
(i__main__
Candidate
p2070
(dp2071
g129
g537
sg254
g260
sg7
g523
sg10
g11
(g12
g13
Ntp2072
Rp2073
(dp2074
g17
g18
sg19
g20
sg21
g11
(g22
g13
Ntp2075
Rp2076
((lp2077
g26
(g27
(dp2078
g29
g30
(g31
(I0
tp2079
g33
tp2080
Rp2081
(I1
(L3L
tp2082
g40
I00
(lp2083
g44
ag45
ag46
atp2084
bsg7
Nstp2085
Rp2086
ag26
(g50
(dp2087
g29
g30
(g31
(I0
tp2088
g33
tp2089
Rp2090
(I1
(L3L
tp2091
g58
I00
S'\x00\x00\x00\x00\x00\x00\x00\x00\x00\x00\x00\x00\x00\x00\x00\x00\x00\x00\x00\x00\x00\x00\x00\x00'
p2092
tp2093
bsg7
Nstp2094
Rp2095
a(lp2096
g30
(g31
(I0
tp2097
g33
tp2098
Rp2099
(I1
(L2L
L3L
tp2100
g40
I00
(lp2101
g442
ag630
ag1206
ag72
ag72
ag72
atp2102
bag30
(g31
(I0
tp2103
g33
tp2104
Rp2105
(I1
(L1L
L3L
tp2106
g40
I00
(lp2107
L500L
aL25000L
aL100L
atp2108
ba(lp2109
g26
(g27
(dp2110
g29
g30
(g31
(I0
tp2111
g33
tp2112
Rp2113
(I1
(L2L
tp2114
g40
I00
(lp2115
g44
ag45
atp2116
bsg7
Nstp2117
Rp2118
ag26
(g27
(dp2119
g29
g30
(g31
(I0
tp2120
g33
tp2121
Rp2122
(I1
(L1L
tp2123
g40
I00
(lp2124
g46
atp2125
bsg7
Nstp2126
Rp2127
a(dp2128
g100
(dp2129
g102
g2077
sg103
(lp2130
(dp2131
g106
g107
(I0
I2
I1
tp2132
Rp2133
sg110
g2099
sa(dp2134
g106
g107
(I2
I3
I1
tp2135
Rp2136
sg110
g2105
sasstp2137
bsbsg8
g538
sbssS'donor_aliases'
p2138
(dp2139
sb.